target datalayout = "e-m:e-p270:32:32-p271:32:32-p272:64:64-i64:64-i128:128-f80:128-n8:16:32:64-S128"
target triple = "x86_64-pc-linux-gnu"

%struct.tsi_ssl_handshaker_factory_vtable = type { ptr }
%"class.grpc_core::RefCountedPtr" = type { ptr }
%struct.tsi_ssl_client_handshaker_factory = type { %struct.tsi_ssl_handshaker_factory, ptr, ptr, i64, %"class.grpc_core::RefCountedPtr", %"class.grpc_core::RefCountedPtr.2" }
%struct.tsi_ssl_handshaker_factory = type { ptr, %struct.gpr_refcount }
%struct.gpr_refcount = type { i64 }
%"class.grpc_core::RefCountedPtr.2" = type { ptr }

; Function Attrs: mustprogress uwtable
define internal void @_ZL34tsi_ssl_handshaker_factory_destroyP26tsi_ssl_handshaker_factory(ptr noundef %0) #4 {
  %2 = alloca ptr, align 8
  store ptr %0, ptr %2, align 8, !tbaa !84
  %3 = load ptr, ptr %2, align 8, !tbaa !84
  %4 = icmp eq ptr %3, null
  br i1 %4, label %5, label %6

5:                                                ; preds = %1
  br label %25

6:                                                ; preds = %1
  %7 = load ptr, ptr %2, align 8, !tbaa !84
  %8 = getelementptr inbounds nuw %struct.tsi_ssl_handshaker_factory, ptr %7, i32 0, i32 0
  %9 = load ptr, ptr %8, align 8, !tbaa !144
  %10 = icmp ne ptr %9, null
  br i1 %10, label %11, label %25

11:                                               ; preds = %6
  %12 = load ptr, ptr %2, align 8, !tbaa !84
  %13 = getelementptr inbounds nuw %struct.tsi_ssl_handshaker_factory, ptr %12, i32 0, i32 0
  %14 = load ptr, ptr %13, align 8, !tbaa !144
  %15 = getelementptr inbounds nuw %struct.tsi_ssl_handshaker_factory_vtable, ptr %14, i32 0, i32 0
  %16 = load ptr, ptr %15, align 8, !tbaa !367
  %17 = icmp ne ptr %16, null
  br i1 %17, label %18, label %25

18:                                               ; preds = %11
  %19 = load ptr, ptr %2, align 8, !tbaa !84
  %20 = getelementptr inbounds nuw %struct.tsi_ssl_handshaker_factory, ptr %19, i32 0, i32 0
  %21 = load ptr, ptr %20, align 8, !tbaa !144
  %22 = getelementptr inbounds nuw %struct.tsi_ssl_handshaker_factory_vtable, ptr %21, i32 0, i32 0
  %23 = load ptr, ptr %22, align 8, !tbaa !367
  %24 = load ptr, ptr %2, align 8, !tbaa !84
  call void %23(ptr noundef %24)
  br label %25

25:                                               ; preds = %5, %18, %11, %6
  ret void
}

; Function Attrs: mustprogress uwtable
define internal void @_ZL32tsi_ssl_handshaker_factory_unrefP26tsi_ssl_handshaker_factory(ptr noundef %0) #4 {
  %2 = alloca ptr, align 8
  store ptr %0, ptr %2, align 8, !tbaa !84
  %3 = load ptr, ptr %2, align 8, !tbaa !84
  %4 = icmp eq ptr %3, null
  br i1 %4, label %5, label %6

5:                                                ; preds = %1
  br label %13

6:                                                ; preds = %1
  %7 = load ptr, ptr %2, align 8, !tbaa !84
  %8 = getelementptr inbounds nuw %struct.tsi_ssl_handshaker_factory, ptr %7, i32 0, i32 1
  %9 = call i32 @gpr_unref(ptr noundef %8)
  %10 = icmp ne i32 %9, 0
  br i1 %10, label %11, label %13

11:                                               ; preds = %6
  %12 = load ptr, ptr %2, align 8, !tbaa !84
  call void @_ZL34tsi_ssl_handshaker_factory_destroyP26tsi_ssl_handshaker_factory(ptr noundef %12)
  br label %13

13:                                               ; preds = %5, %11, %6
  ret void
}

; Function Attrs: mustprogress uwtable
define void @_Z39tsi_ssl_client_handshaker_factory_unrefP33tsi_ssl_client_handshaker_factory(ptr noundef %0) #4 {
  %2 = alloca ptr, align 8
  store ptr %0, ptr %2, align 8, !tbaa !71
  %3 = load ptr, ptr %2, align 8, !tbaa !71
  %4 = icmp eq ptr %3, null
  br i1 %4, label %5, label %6

5:                                                ; preds = %1
  br label %9

6:                                                ; preds = %1
  %7 = load ptr, ptr %2, align 8, !tbaa !71
  %8 = getelementptr inbounds nuw %struct.tsi_ssl_client_handshaker_factory, ptr %7, i32 0, i32 0
  call void @_ZL32tsi_ssl_handshaker_factory_unrefP26tsi_ssl_handshaker_factory(ptr noundef %8)
  br label %9

9:                                                ; preds = %6, %5
  ret void
}