; Function Attrs: mustprogress uwtable
define void @_Z39tsi_ssl_client_handshaker_factory_unrefP33tsi_ssl_client_handshaker_factory(ptr noundef %0) local_unnamed_addr #3 {
  %2 = icmp eq ptr %0, null
  br i1 %2, label %_ZL32tsi_ssl_handshaker_factory_unrefP26tsi_ssl_handshaker_factory.exit, label %3

3:                                                ; preds = %1
  %4 = getelementptr inbounds nuw i8, ptr %0, i64 8
  %5 = tail call i32 @gpr_unref(ptr noundef nonnull %4)
  %.not.i = icmp eq i32 %5, 0
  br i1 %.not.i, label %_ZL32tsi_ssl_handshaker_factory_unrefP26tsi_ssl_handshaker_factory.exit, label %6

6:                                                ; preds = %3
  %7 = load ptr, ptr %0, align 8, !tbaa !76
  %.not.i.i = icmp eq ptr %7, null
  br i1 %.not.i.i, label %_ZL32tsi_ssl_handshaker_factory_unrefP26tsi_ssl_handshaker_factory.exit, label %8

8:                                                ; preds = %6
  %9 = load ptr, ptr %7, align 8, !tbaa !77
  %.not7.i.i = icmp eq ptr %9, null
  br i1 %.not7.i.i, label %_ZL32tsi_ssl_handshaker_factory_unrefP26tsi_ssl_handshaker_factory.exit, label %10

10:                                               ; preds = %8
  tail call void %9(ptr noundef nonnull %0)
  br label %_ZL32tsi_ssl_handshaker_factory_unrefP26tsi_ssl_handshaker_factory.exit

_ZL32tsi_ssl_handshaker_factory_unrefP26tsi_ssl_handshaker_factory.exit: ; preds = %10, %8, %6, %3, %1
  ret void
}